target datalayout = "e-m:e-p270:32:32-p271:32:32-p272:64:64-i64:64-i128:128-f80:128-n8:16:32:64-S128"
target triple = "x86_64-pc-linux-gnu"

%struct.Extra_BitMat_t_ = type { ptr, i32, i32, i32, i32, i32, i32, i32 }

; Function Attrs: nounwind uwtable
define ptr @Extra_BitMatrixStart(i32 noundef %0) #0 {
  %2 = alloca i32, align 4
  %3 = alloca ptr, align 8
  %4 = alloca i32, align 4
  store i32 %0, ptr %2, align 4
  %5 = call noalias ptr @malloc(i64 noundef 40) #5
  store ptr %5, ptr %3, align 8
  %6 = load ptr, ptr %3, align 8
  call void @llvm.memset.p0.i64(ptr align 8 %6, i8 0, i64 40, i1 false)
  %7 = load i32, ptr %2, align 4
  %8 = load ptr, ptr %3, align 8
  %9 = getelementptr inbounds %struct.Extra_BitMat_t_, ptr %8, i32 0, i32 1
  store i32 %7, ptr %9, align 8
  %10 = load ptr, ptr %3, align 8
  %11 = getelementptr inbounds %struct.Extra_BitMat_t_, ptr %10, i32 0, i32 3
  store i32 5, ptr %11, align 8
  %12 = load ptr, ptr %3, align 8
  %13 = getelementptr inbounds %struct.Extra_BitMat_t_, ptr %12, i32 0, i32 4
  store i32 31, ptr %13, align 4
  %14 = load i32, ptr %2, align 4
  %15 = sext i32 %14 to i64
  %16 = udiv i64 %15, 32
  %17 = load i32, ptr %2, align 4
  %18 = sext i32 %17 to i64
  %19 = urem i64 %18, 32
  %20 = icmp ugt i64 %19, 0
  %21 = zext i1 %20 to i32
  %22 = sext i32 %21 to i64
  %23 = add i64 %16, %22
  %24 = trunc i64 %23 to i32
  %25 = load ptr, ptr %3, align 8
  %26 = getelementptr inbounds %struct.Extra_BitMat_t_, ptr %25, i32 0, i32 2
  store i32 %24, ptr %26, align 4
  %27 = load i32, ptr %2, align 4
  %28 = sext i32 %27 to i64
  %29 = mul i64 8, %28
  %30 = call noalias ptr @malloc(i64 noundef %29) #5
  %31 = load ptr, ptr %3, align 8
  %32 = getelementptr inbounds %struct.Extra_BitMat_t_, ptr %31, i32 0, i32 0
  store ptr %30, ptr %32, align 8
  %33 = load i32, ptr %2, align 4
  %34 = load ptr, ptr %3, align 8
  %35 = getelementptr inbounds %struct.Extra_BitMat_t_, ptr %34, i32 0, i32 2
  %36 = load i32, ptr %35, align 4
  %37 = mul nsw i32 %33, %36
  %38 = sext i32 %37 to i64
  %39 = mul i64 4, %38
  %40 = call noalias ptr @malloc(i64 noundef %39) #5
  %41 = load ptr, ptr %3, align 8
  %42 = getelementptr inbounds %struct.Extra_BitMat_t_, ptr %41, i32 0, i32 0
  %43 = load ptr, ptr %42, align 8
  %44 = getelementptr inbounds ptr, ptr %43, i64 0
  store ptr %40, ptr %44, align 8
  %45 = load ptr, ptr %3, align 8
  %46 = getelementptr inbounds %struct.Extra_BitMat_t_, ptr %45, i32 0, i32 0
  %47 = load ptr, ptr %46, align 8
  %48 = getelementptr inbounds ptr, ptr %47, i64 0
  %49 = load ptr, ptr %48, align 8
  %50 = load i32, ptr %2, align 4
  %51 = sext i32 %50 to i64
  %52 = mul i64 4, %51
  %53 = load ptr, ptr %3, align 8
  %54 = getelementptr inbounds %struct.Extra_BitMat_t_, ptr %53, i32 0, i32 2
  %55 = load i32, ptr %54, align 4
  %56 = sext i32 %55 to i64
  %57 = mul i64 %52, %56
  call void @llvm.memset.p0.i64(ptr align 4 %49, i8 0, i64 %57, i1 false)
  store i32 1, ptr %4, align 4
  br label %58

58:                                               ; preds = %82, %1
  %59 = load i32, ptr %4, align 4
  %60 = load i32, ptr %2, align 4
  %61 = icmp slt i32 %59, %60
  br i1 %61, label %62, label %85

62:                                               ; preds = %58
  %63 = load ptr, ptr %3, align 8
  %64 = getelementptr inbounds %struct.Extra_BitMat_t_, ptr %63, i32 0, i32 0
  %65 = load ptr, ptr %64, align 8
  %66 = load i32, ptr %4, align 4
  %67 = sub nsw i32 %66, 1
  %68 = sext i32 %67 to i64
  %69 = getelementptr inbounds ptr, ptr %65, i64 %68
  %70 = load ptr, ptr %69, align 8
  %71 = load ptr, ptr %3, align 8
  %72 = getelementptr inbounds %struct.Extra_BitMat_t_, ptr %71, i32 0, i32 2
  %73 = load i32, ptr %72, align 4
  %74 = sext i32 %73 to i64
  %75 = getelementptr inbounds i32, ptr %70, i64 %74
  %76 = load ptr, ptr %3, align 8
  %77 = getelementptr inbounds %struct.Extra_BitMat_t_, ptr %76, i32 0, i32 0
  %78 = load ptr, ptr %77, align 8
  %79 = load i32, ptr %4, align 4
  %80 = sext i32 %79 to i64
  %81 = getelementptr inbounds ptr, ptr %78, i64 %80
  store ptr %75, ptr %81, align 8
  br label %82

82:                                               ; preds = %62
  %83 = load i32, ptr %4, align 4
  %84 = add nsw i32 %83, 1
  store i32 %84, ptr %4, align 4
  br label %58, !llvm.loop !4

85:                                               ; preds = %58
  %86 = load ptr, ptr %3, align 8
  ret ptr %86
}