; Function Attrs: nofree nounwind memory(readwrite, argmem: none) uwtable
define noalias noundef ptr @Extra_BitMatrixStart(i32 noundef %0) local_unnamed_addr #0 {
  %calloc = tail call dereferenceable_or_null(40) ptr @calloc(i64 1, i64 40)
  %2 = getelementptr inbounds nuw i8, ptr %calloc, i64 8
  store i32 %0, ptr %2, align 8
  %3 = getelementptr inbounds nuw i8, ptr %calloc, i64 16
  store i32 5, ptr %3, align 8
  %4 = getelementptr inbounds nuw i8, ptr %calloc, i64 20
  store i32 31, ptr %4, align 4
  %5 = sext i32 %0 to i64
  %6 = lshr i64 %5, 5
  %7 = and i32 %0, 31
  %8 = icmp ne i32 %7, 0
  %9 = zext i1 %8 to i64
  %10 = add nuw nsw i64 %6, %9
  %11 = trunc i64 %10 to i32
  %12 = getelementptr inbounds nuw i8, ptr %calloc, i64 12
  store i32 %11, ptr %12, align 4
  %13 = shl nsw i64 %5, 3
  %14 = tail call noalias ptr @malloc(i64 noundef %13) #15
  store ptr %14, ptr %calloc, align 8
  %15 = mul nsw i32 %0, %11
  %16 = sext i32 %15 to i64
  %17 = shl nsw i64 %16, 2
  %18 = tail call noalias ptr @malloc(i64 noundef %17) #15
  store ptr %18, ptr %14, align 8
  %19 = shl nsw i64 %5, 2
  %sext = shl i64 %10, 32
  %20 = ashr exact i64 %sext, 32
  %21 = mul i64 %19, %20
  tail call void @llvm.memset.p0.i64(ptr align 4 %18, i8 0, i64 %21, i1 false)
  %22 = icmp sgt i32 %0, 1
  br i1 %22, label %.lr.ph.preheader, label %._crit_edge

.lr.ph.preheader:                                 ; preds = %1
  %wide.trip.count = zext nneg i32 %0 to i64
  %load_initial = load ptr, ptr %14, align 8
  br label %.lr.ph

.lr.ph:                                           ; preds = %.lr.ph.preheader, %.lr.ph
  %store_forwarded = phi ptr [ %load_initial, %.lr.ph.preheader ], [ %24, %.lr.ph ]
  %indvars.iv = phi i64 [ 1, %.lr.ph.preheader ], [ %indvars.iv.next, %.lr.ph ]
  %23 = getelementptr ptr, ptr %14, i64 %indvars.iv
  %24 = getelementptr inbounds nuw i32, ptr %store_forwarded, i64 %20
  store ptr %24, ptr %23, align 8
  %indvars.iv.next = add nuw nsw i64 %indvars.iv, 1
  %exitcond.not = icmp eq i64 %indvars.iv.next, %wide.trip.count
  br i1 %exitcond.not, label %._crit_edge, label %.lr.ph, !llvm.loop !4

._crit_edge:                                      ; preds = %.lr.ph, %1
  ret ptr %calloc
}